target datalayout = "e-m:e-p270:32:32-p271:32:32-p272:64:64-i64:64-i128:128-f80:128-n8:16:32:64-S128"
target triple = "x86_64-pc-linux-gnu"

%struct.RLTable = type { i32, i32, ptr, ptr, ptr, [2 x ptr], [2 x ptr], [2 x ptr], [32 x ptr] }

; Function Attrs: cold nounwind optsize uwtable
define void @ff_rl_init(ptr noundef %0, ptr noundef %1) #0 {
  %3 = alloca ptr, align 8
  %4 = alloca ptr, align 8
  %5 = alloca i32, align 4
  %6 = alloca i32, align 4
  %7 = alloca i32, align 4
  %8 = alloca i32, align 4
  %9 = alloca i32, align 4
  %10 = alloca i32, align 4
  %11 = alloca ptr, align 8
  %12 = alloca ptr, align 8
  %13 = alloca ptr, align 8
  store ptr %0, ptr %3, align 8, !tbaa !14
  store ptr %1, ptr %4, align 8, !tbaa !4
  call void @llvm.lifetime.start.p0(i64 4, ptr %5) #4
  call void @llvm.lifetime.start.p0(i64 4, ptr %6) #4
  call void @llvm.lifetime.start.p0(i64 4, ptr %7) #4
  call void @llvm.lifetime.start.p0(i64 4, ptr %8) #4
  call void @llvm.lifetime.start.p0(i64 4, ptr %9) #4
  call void @llvm.lifetime.start.p0(i64 4, ptr %10) #4
  store i32 0, ptr %5, align 4, !tbaa !9
  br label %14

14:                                               ; preds = %152, %2
  %15 = load i32, ptr %5, align 4, !tbaa !9
  %16 = icmp slt i32 %15, 2
  br i1 %16, label %17, label %155

17:                                               ; preds = %14
  call void @llvm.lifetime.start.p0(i64 8, ptr %11) #4
  %18 = load ptr, ptr %4, align 8, !tbaa !4
  %19 = load i32, ptr %5, align 4, !tbaa !9
  %20 = sext i32 %19 to i64
  %21 = getelementptr inbounds [195 x i8], ptr %18, i64 %20
  %22 = getelementptr inbounds [195 x i8], ptr %21, i64 0, i64 0
  store ptr %22, ptr %11, align 8, !tbaa !4
  call void @llvm.lifetime.start.p0(i64 8, ptr %12) #4
  %23 = load ptr, ptr %4, align 8, !tbaa !4
  %24 = load i32, ptr %5, align 4, !tbaa !9
  %25 = sext i32 %24 to i64
  %26 = getelementptr inbounds [195 x i8], ptr %23, i64 %25
  %27 = getelementptr inbounds [195 x i8], ptr %26, i64 0, i64 0
  %28 = getelementptr inbounds i8, ptr %27, i64 64
  %29 = getelementptr inbounds i8, ptr %28, i64 1
  store ptr %29, ptr %12, align 8, !tbaa !4
  call void @llvm.lifetime.start.p0(i64 8, ptr %13) #4
  %30 = load ptr, ptr %4, align 8, !tbaa !4
  %31 = load i32, ptr %5, align 4, !tbaa !9
  %32 = sext i32 %31 to i64
  %33 = getelementptr inbounds [195 x i8], ptr %30, i64 %32
  %34 = getelementptr inbounds [195 x i8], ptr %33, i64 0, i64 0
  %35 = getelementptr inbounds i8, ptr %34, i64 64
  %36 = getelementptr inbounds i8, ptr %35, i64 1
  %37 = getelementptr inbounds i8, ptr %36, i64 64
  %38 = getelementptr inbounds i8, ptr %37, i64 1
  store ptr %38, ptr %13, align 8, !tbaa !4
  %39 = load i32, ptr %5, align 4, !tbaa !9
  %40 = icmp eq i32 %39, 0
  br i1 %40, label %41, label %45

41:                                               ; preds = %17
  store i32 0, ptr %8, align 4, !tbaa !9
  %42 = load ptr, ptr %3, align 8, !tbaa !14
  %43 = getelementptr inbounds nuw %struct.RLTable, ptr %42, i32 0, i32 1
  %44 = load i32, ptr %43, align 4, !tbaa !16
  store i32 %44, ptr %9, align 4, !tbaa !9
  br label %52

45:                                               ; preds = %17
  %46 = load ptr, ptr %3, align 8, !tbaa !14
  %47 = getelementptr inbounds nuw %struct.RLTable, ptr %46, i32 0, i32 1
  %48 = load i32, ptr %47, align 4, !tbaa !16
  store i32 %48, ptr %8, align 4, !tbaa !9
  %49 = load ptr, ptr %3, align 8, !tbaa !14
  %50 = getelementptr inbounds nuw %struct.RLTable, ptr %49, i32 0, i32 0
  %51 = load i32, ptr %50, align 8, !tbaa !19
  store i32 %51, ptr %9, align 4, !tbaa !9
  br label %52

52:                                               ; preds = %45, %41
  %53 = load ptr, ptr %13, align 8, !tbaa !4
  %54 = load ptr, ptr %3, align 8, !tbaa !14
  %55 = getelementptr inbounds nuw %struct.RLTable, ptr %54, i32 0, i32 0
  %56 = load i32, ptr %55, align 8, !tbaa !19
  %57 = trunc i32 %56 to i8
  call void @llvm.memset.p0.i64(ptr align 1 %53, i8 %57, i64 65, i1 false)
  %58 = load i32, ptr %8, align 4, !tbaa !9
  store i32 %58, ptr %10, align 4, !tbaa !9
  br label %59

59:                                               ; preds = %130, %52
  %60 = load i32, ptr %10, align 4, !tbaa !9
  %61 = load i32, ptr %9, align 4, !tbaa !9
  %62 = icmp slt i32 %60, %61
  br i1 %62, label %63, label %133

63:                                               ; preds = %59
  %64 = load ptr, ptr %3, align 8, !tbaa !14
  %65 = getelementptr inbounds nuw %struct.RLTable, ptr %64, i32 0, i32 3
  %66 = load ptr, ptr %65, align 8, !tbaa !20
  %67 = load i32, ptr %10, align 4, !tbaa !9
  %68 = sext i32 %67 to i64
  %69 = getelementptr inbounds i8, ptr %66, i64 %68
  %70 = load i8, ptr %69, align 1, !tbaa !11
  %71 = sext i8 %70 to i32
  store i32 %71, ptr %6, align 4, !tbaa !9
  %72 = load ptr, ptr %3, align 8, !tbaa !14
  %73 = getelementptr inbounds nuw %struct.RLTable, ptr %72, i32 0, i32 4
  %74 = load ptr, ptr %73, align 8, !tbaa !21
  %75 = load i32, ptr %10, align 4, !tbaa !9
  %76 = sext i32 %75 to i64
  %77 = getelementptr inbounds i8, ptr %74, i64 %76
  %78 = load i8, ptr %77, align 1, !tbaa !11
  %79 = sext i8 %78 to i32
  store i32 %79, ptr %7, align 4, !tbaa !9
  %80 = load ptr, ptr %13, align 8, !tbaa !4
  %81 = load i32, ptr %6, align 4, !tbaa !9
  %82 = sext i32 %81 to i64
  %83 = getelementptr inbounds i8, ptr %80, i64 %82
  %84 = load i8, ptr %83, align 1, !tbaa !11
  %85 = zext i8 %84 to i32
  %86 = load ptr, ptr %3, align 8, !tbaa !14
  %87 = getelementptr inbounds nuw %struct.RLTable, ptr %86, i32 0, i32 0
  %88 = load i32, ptr %87, align 8, !tbaa !19
  %89 = icmp eq i32 %85, %88
  br i1 %89, label %90, label %97

90:                                               ; preds = %63
  %91 = load i32, ptr %10, align 4, !tbaa !9
  %92 = trunc i32 %91 to i8
  %93 = load ptr, ptr %13, align 8, !tbaa !4
  %94 = load i32, ptr %6, align 4, !tbaa !9
  %95 = sext i32 %94 to i64
  %96 = getelementptr inbounds i8, ptr %93, i64 %95
  store i8 %92, ptr %96, align 1, !tbaa !11
  br label %97

97:                                               ; preds = %90, %63
  %98 = load i32, ptr %7, align 4, !tbaa !9
  %99 = load ptr, ptr %11, align 8, !tbaa !4
  %100 = load i32, ptr %6, align 4, !tbaa !9
  %101 = sext i32 %100 to i64
  %102 = getelementptr inbounds i8, ptr %99, i64 %101
  %103 = load i8, ptr %102, align 1, !tbaa !11
  %104 = sext i8 %103 to i32
  %105 = icmp sgt i32 %98, %104
  br i1 %105, label %106, label %113

106:                                              ; preds = %97
  %107 = load i32, ptr %7, align 4, !tbaa !9
  %108 = trunc i32 %107 to i8
  %109 = load ptr, ptr %11, align 8, !tbaa !4
  %110 = load i32, ptr %6, align 4, !tbaa !9
  %111 = sext i32 %110 to i64
  %112 = getelementptr inbounds i8, ptr %109, i64 %111
  store i8 %108, ptr %112, align 1, !tbaa !11
  br label %113

113:                                              ; preds = %106, %97
  %114 = load i32, ptr %6, align 4, !tbaa !9
  %115 = load ptr, ptr %12, align 8, !tbaa !4
  %116 = load i32, ptr %7, align 4, !tbaa !9
  %117 = sext i32 %116 to i64
  %118 = getelementptr inbounds i8, ptr %115, i64 %117
  %119 = load i8, ptr %118, align 1, !tbaa !11
  %120 = sext i8 %119 to i32
  %121 = icmp sgt i32 %114, %120
  br i1 %121, label %122, label %129

122:                                              ; preds = %113
  %123 = load i32, ptr %6, align 4, !tbaa !9
  %124 = trunc i32 %123 to i8
  %125 = load ptr, ptr %12, align 8, !tbaa !4
  %126 = load i32, ptr %7, align 4, !tbaa !9
  %127 = sext i32 %126 to i64
  %128 = getelementptr inbounds i8, ptr %125, i64 %127
  store i8 %124, ptr %128, align 1, !tbaa !11
  br label %129

129:                                              ; preds = %122, %113
  br label %130

130:                                              ; preds = %129
  %131 = load i32, ptr %10, align 4, !tbaa !9
  %132 = add nsw i32 %131, 1
  store i32 %132, ptr %10, align 4, !tbaa !9
  br label %59, !llvm.loop !22

133:                                              ; preds = %59
  %134 = load ptr, ptr %11, align 8, !tbaa !4
  %135 = load ptr, ptr %3, align 8, !tbaa !14
  %136 = getelementptr inbounds nuw %struct.RLTable, ptr %135, i32 0, i32 6
  %137 = load i32, ptr %5, align 4, !tbaa !9
  %138 = sext i32 %137 to i64
  %139 = getelementptr inbounds [2 x ptr], ptr %136, i64 0, i64 %138
  store ptr %134, ptr %139, align 8, !tbaa !4
  %140 = load ptr, ptr %12, align 8, !tbaa !4
  %141 = load ptr, ptr %3, align 8, !tbaa !14
  %142 = getelementptr inbounds nuw %struct.RLTable, ptr %141, i32 0, i32 7
  %143 = load i32, ptr %5, align 4, !tbaa !9
  %144 = sext i32 %143 to i64
  %145 = getelementptr inbounds [2 x ptr], ptr %142, i64 0, i64 %144
  store ptr %140, ptr %145, align 8, !tbaa !4
  %146 = load ptr, ptr %13, align 8, !tbaa !4
  %147 = load ptr, ptr %3, align 8, !tbaa !14
  %148 = getelementptr inbounds nuw %struct.RLTable, ptr %147, i32 0, i32 5
  %149 = load i32, ptr %5, align 4, !tbaa !9
  %150 = sext i32 %149 to i64
  %151 = getelementptr inbounds [2 x ptr], ptr %148, i64 0, i64 %150
  store ptr %146, ptr %151, align 8, !tbaa !4
  call void @llvm.lifetime.end.p0(i64 8, ptr %13) #4
  call void @llvm.lifetime.end.p0(i64 8, ptr %12) #4
  call void @llvm.lifetime.end.p0(i64 8, ptr %11) #4
  br label %152

152:                                              ; preds = %133
  %153 = load i32, ptr %5, align 4, !tbaa !9
  %154 = add nsw i32 %153, 1
  store i32 %154, ptr %5, align 4, !tbaa !9
  br label %14, !llvm.loop !23

155:                                              ; preds = %14
  call void @llvm.lifetime.end.p0(i64 4, ptr %10) #4
  call void @llvm.lifetime.end.p0(i64 4, ptr %9) #4
  call void @llvm.lifetime.end.p0(i64 4, ptr %8) #4
  call void @llvm.lifetime.end.p0(i64 4, ptr %7) #4
  call void @llvm.lifetime.end.p0(i64 4, ptr %6) #4
  call void @llvm.lifetime.end.p0(i64 4, ptr %5) #4
  ret void
}