; Function Attrs: cold nofree norecurse nosync nounwind optsize memory(read, argmem: readwrite, inaccessiblemem: none) uwtable
define void @ff_rl_init(ptr noundef captures(none) %0, ptr noundef %1) local_unnamed_addr #2 {
  %3 = getelementptr inbounds nuw i8, ptr %0, i64 48
  %4 = getelementptr inbounds nuw i8, ptr %0, i64 64
  %5 = getelementptr inbounds nuw i8, ptr %0, i64 32
  %6 = getelementptr inbounds nuw i8, ptr %0, i64 4
  %7 = getelementptr inbounds nuw i8, ptr %0, i64 16
  %8 = getelementptr inbounds nuw i8, ptr %0, i64 24
  br label %9

9:                                                ; preds = %2, %._crit_edge
  %10 = phi i1 [ true, %2 ], [ false, %._crit_edge ]
  %indvars.iv54 = phi i64 [ 0, %2 ], [ 1, %._crit_edge ]
  %11 = getelementptr inbounds nuw [195 x i8], ptr %1, i64 %indvars.iv54
  %12 = getelementptr inbounds nuw i8, ptr %11, i64 65
  %13 = getelementptr inbounds nuw i8, ptr %11, i64 130
  br i1 %10, label %16, label %14

14:                                               ; preds = %9
  %15 = load i32, ptr %6, align 4, !tbaa !9
  br label %16

16:                                               ; preds = %9, %14
  %.049.in = phi ptr [ %0, %14 ], [ %6, %9 ]
  %.048 = phi i32 [ %15, %14 ], [ 0, %9 ]
  %.049 = load i32, ptr %.049.in, align 4, !tbaa !15
  %17 = load i32, ptr %0, align 8, !tbaa !16
  %18 = trunc i32 %17 to i8
  tail call void @llvm.memset.p0.i64(ptr noundef nonnull align 1 dereferenceable(65) %13, i8 %18, i64 65, i1 false)
  %19 = icmp slt i32 %.048, %.049
  br i1 %19, label %.lr.ph.preheader, label %._crit_edge

.lr.ph.preheader:                                 ; preds = %16
  %20 = sext i32 %.048 to i64
  %wide.trip.count = sext i32 %.049 to i64
  br label %.lr.ph

.lr.ph:                                           ; preds = %.lr.ph.preheader, %46
  %indvars.iv = phi i64 [ %20, %.lr.ph.preheader ], [ %indvars.iv.next, %46 ]
  %21 = load ptr, ptr %7, align 8, !tbaa !17
  %22 = getelementptr inbounds i8, ptr %21, i64 %indvars.iv
  %23 = load i8, ptr %22, align 1, !tbaa !4
  %24 = load ptr, ptr %8, align 8, !tbaa !18
  %25 = getelementptr inbounds i8, ptr %24, i64 %indvars.iv
  %26 = load i8, ptr %25, align 1, !tbaa !4
  %27 = sext i8 %23 to i64
  %28 = getelementptr inbounds i8, ptr %13, i64 %27
  %29 = load i8, ptr %28, align 1, !tbaa !4
  %30 = zext i8 %29 to i32
  %31 = load i32, ptr %0, align 8, !tbaa !16
  %32 = icmp eq i32 %31, %30
  br i1 %32, label %33, label %35

33:                                               ; preds = %.lr.ph
  %34 = trunc i64 %indvars.iv to i8
  store i8 %34, ptr %28, align 1, !tbaa !4
  br label %35

35:                                               ; preds = %33, %.lr.ph
  %36 = getelementptr inbounds i8, ptr %11, i64 %27
  %37 = load i8, ptr %36, align 1, !tbaa !4
  %38 = icmp sgt i8 %26, %37
  br i1 %38, label %39, label %40

39:                                               ; preds = %35
  store i8 %26, ptr %36, align 1, !tbaa !4
  br label %40

40:                                               ; preds = %39, %35
  %41 = sext i8 %26 to i64
  %42 = getelementptr inbounds i8, ptr %12, i64 %41
  %43 = load i8, ptr %42, align 1, !tbaa !4
  %44 = icmp sgt i8 %23, %43
  br i1 %44, label %45, label %46

45:                                               ; preds = %40
  store i8 %23, ptr %42, align 1, !tbaa !4
  br label %46

46:                                               ; preds = %40, %45
  %indvars.iv.next = add nsw i64 %indvars.iv, 1
  %exitcond.not = icmp eq i64 %indvars.iv.next, %wide.trip.count
  br i1 %exitcond.not, label %._crit_edge, label %.lr.ph, !llvm.loop !19

._crit_edge:                                      ; preds = %46, %16
  %47 = getelementptr inbounds nuw [2 x ptr], ptr %3, i64 0, i64 %indvars.iv54
  store ptr %11, ptr %47, align 8, !tbaa !20
  %48 = getelementptr inbounds nuw [2 x ptr], ptr %4, i64 0, i64 %indvars.iv54
  store ptr %12, ptr %48, align 8, !tbaa !20
  %49 = getelementptr inbounds nuw [2 x ptr], ptr %5, i64 0, i64 %indvars.iv54
  store ptr %13, ptr %49, align 8, !tbaa !20
  br i1 %10, label %9, label %50, !llvm.loop !21

50:                                               ; preds = %._crit_edge
  ret void
}